target datalayout = "e-m:e-p270:32:32-p271:32:32-p272:64:64-i64:64-i128:128-f80:128-n8:16:32:64-S128"
target triple = "x86_64-pc-linux-gnu"

%"class.ozz::options::TypedOption" = type <{ %"class.ozz::options::Option", i8, i8, [6 x i8] }>
%"class.ozz::options::Option" = type { ptr, ptr, ptr, i8, i8, ptr }
%"class.ozz::options::Parser" = type { [32 x ptr], i32, i32, ptr, ptr, ptr, ptr, ptr, %"class.ozz::options::TypedOption", %"class.ozz::options::TypedOption" }

@.str.3 = private unnamed_addr constant [1 x i8] zeroinitializer, align 1
@.str.5 = private unnamed_addr constant [8 x i8] c"version\00", align 1
@.str.6 = private unnamed_addr constant [29 x i8] c"Displays application version\00", align 1
@.str.7 = private unnamed_addr constant [5 x i8] c"help\00", align 1
@.str.8 = private unnamed_addr constant [14 x i8] c"Displays help\00", align 1
@.str.27 = private unnamed_addr constant [18 x i8] c"unspecified usage\00", align 1
@.str.28 = private unnamed_addr constant [20 x i8] c"unspecified version\00", align 1
@_ZN3ozz7options11TypedOptionIbEC1EPKcS4_bbPFbRKNS0_6OptionEiE = weak_odr dso_local unnamed_addr alias void (ptr, ptr, ptr, i1, i1, ptr), ptr @_ZN3ozz7options11TypedOptionIbEC2EPKcS4_bbPFbRKNS0_6OptionEiE
@_ZN3ozz7options11TypedOptionIbED1Ev = weak_odr dso_local unnamed_addr alias void (ptr), ptr @_ZN3ozz7options11TypedOptionIbED2Ev

; Function Attrs: mustprogress nounwind uwtable
define dso_local void @_ZN3ozz7options6Parser9set_usageEPKc(ptr noundef nonnull align 8 dereferenceable(400) %0, ptr noundef %1) #6 align 2 {
  %3 = alloca ptr, align 8
  %4 = alloca ptr, align 8
  store ptr %0, ptr %3, align 8, !tbaa !24
  store ptr %1, ptr %4, align 8, !tbaa !9
  %5 = load ptr, ptr %3, align 8
  %6 = load ptr, ptr %4, align 8, !tbaa !9
  %7 = icmp ne ptr %6, null
  br i1 %7, label %8, label %10

8:                                                ; preds = %2
  %9 = load ptr, ptr %4, align 8, !tbaa !9
  br label %11

10:                                               ; preds = %2
  br label %11

11:                                               ; preds = %10, %8
  %12 = phi ptr [ %9, %8 ], [ @.str.27, %10 ]
  %13 = getelementptr inbounds nuw %"class.ozz::options::Parser", ptr %5, i32 0, i32 7
  store ptr %12, ptr %13, align 8, !tbaa !99
  ret void
}

; Function Attrs: mustprogress nounwind uwtable
define dso_local void @_ZN3ozz7options6Parser11set_versionEPKc(ptr noundef nonnull align 8 dereferenceable(400) %0, ptr noundef %1) #6 align 2 {
  %3 = alloca ptr, align 8
  %4 = alloca ptr, align 8
  store ptr %0, ptr %3, align 8, !tbaa !24
  store ptr %1, ptr %4, align 8, !tbaa !9
  %5 = load ptr, ptr %3, align 8
  %6 = load ptr, ptr %4, align 8, !tbaa !9
  %7 = icmp ne ptr %6, null
  br i1 %7, label %8, label %10

8:                                                ; preds = %2
  %9 = load ptr, ptr %4, align 8, !tbaa !9
  br label %11

10:                                               ; preds = %2
  br label %11

11:                                               ; preds = %10, %8
  %12 = phi ptr [ %9, %8 ], [ @.str.28, %10 ]
  %13 = getelementptr inbounds nuw %"class.ozz::options::Parser", ptr %5, i32 0, i32 6
  store ptr %12, ptr %13, align 8, !tbaa !100
  ret void
}

; Function Attrs: mustprogress uwtable
define dso_local void @_ZN3ozz7options6ParserC2Ev(ptr noundef nonnull align 8 dereferenceable(400) %0) unnamed_addr #4 align 2 personality ptr @__gxx_personality_v0 {
  %2 = alloca ptr, align 8
  %3 = alloca ptr, align 8
  %4 = alloca i32, align 4
  store ptr %0, ptr %2, align 8, !tbaa !24
  %5 = load ptr, ptr %2, align 8
  %6 = getelementptr inbounds nuw %"class.ozz::options::Parser", ptr %5, i32 0, i32 1
  store i32 0, ptr %6, align 8, !tbaa !28
  %7 = getelementptr inbounds nuw %"class.ozz::options::Parser", ptr %5, i32 0, i32 2
  store i32 0, ptr %7, align 4, !tbaa !40
  %8 = getelementptr inbounds nuw %"class.ozz::options::Parser", ptr %5, i32 0, i32 3
  store ptr @.str.3, ptr %8, align 8, !tbaa !101
  %9 = getelementptr inbounds nuw %"class.ozz::options::Parser", ptr %5, i32 0, i32 4
  %10 = getelementptr inbounds nuw %"class.ozz::options::Parser", ptr %5, i32 0, i32 3
  %11 = load ptr, ptr %10, align 8, !tbaa !101
  %12 = getelementptr inbounds i8, ptr %11, i64 1
  store ptr %12, ptr %9, align 8, !tbaa !102
  %13 = getelementptr inbounds nuw %"class.ozz::options::Parser", ptr %5, i32 0, i32 5
  store ptr @.str.3, ptr %13, align 8, !tbaa !103
  %14 = getelementptr inbounds nuw %"class.ozz::options::Parser", ptr %5, i32 0, i32 6
  store ptr null, ptr %14, align 8, !tbaa !100
  %15 = getelementptr inbounds nuw %"class.ozz::options::Parser", ptr %5, i32 0, i32 7
  store ptr null, ptr %15, align 8, !tbaa !99
  %16 = getelementptr inbounds nuw %"class.ozz::options::Parser", ptr %5, i32 0, i32 8
  call void @_ZN3ozz7options11TypedOptionIbEC1EPKcS4_bbPFbRKNS0_6OptionEiE(ptr noundef nonnull align 8 dereferenceable(42) %16, ptr noundef @.str.5, ptr noundef @.str.6, i1 noundef zeroext false, i1 noundef zeroext false, ptr noundef @_ZN3ozz7options12_GLOBAL__N_123ValidateExclusiveOptionERKNS0_6OptionEi)
  %17 = getelementptr inbounds nuw %"class.ozz::options::Parser", ptr %5, i32 0, i32 9
  invoke void @_ZN3ozz7options11TypedOptionIbEC1EPKcS4_bbPFbRKNS0_6OptionEiE(ptr noundef nonnull align 8 dereferenceable(42) %17, ptr noundef @.str.7, ptr noundef @.str.8, i1 noundef zeroext false, i1 noundef zeroext false, ptr noundef @_ZN3ozz7options12_GLOBAL__N_123ValidateExclusiveOptionERKNS0_6OptionEi)
          to label %18 unwind label %30

18:                                               ; preds = %1
  invoke void @_ZN3ozz7options6Parser11set_versionEPKc(ptr noundef nonnull align 8 dereferenceable(400) %5, ptr noundef null)
          to label %19 unwind label %34

19:                                               ; preds = %18
  invoke void @_ZN3ozz7options6Parser9set_usageEPKc(ptr noundef nonnull align 8 dereferenceable(400) %5, ptr noundef null)
          to label %20 unwind label %34

20:                                               ; preds = %19
  %21 = getelementptr inbounds nuw %"class.ozz::options::Parser", ptr %5, i32 0, i32 8
  %22 = invoke noundef zeroext i1 @_ZN3ozz7options6Parser14RegisterOptionEPNS0_6OptionE(ptr noundef nonnull align 8 dereferenceable(400) %5, ptr noundef %21)
          to label %23 unwind label %34

23:                                               ; preds = %20
  %24 = getelementptr inbounds nuw %"class.ozz::options::Parser", ptr %5, i32 0, i32 9
  %25 = invoke noundef zeroext i1 @_ZN3ozz7options6Parser14RegisterOptionEPNS0_6OptionE(ptr noundef nonnull align 8 dereferenceable(400) %5, ptr noundef %24)
          to label %26 unwind label %34

26:                                               ; preds = %23
  %27 = getelementptr inbounds nuw %"class.ozz::options::Parser", ptr %5, i32 0, i32 1
  %28 = load i32, ptr %27, align 8, !tbaa !28
  %29 = getelementptr inbounds nuw %"class.ozz::options::Parser", ptr %5, i32 0, i32 2
  store i32 %28, ptr %29, align 4, !tbaa !40
  ret void

30:                                               ; preds = %1
  %31 = landingpad { ptr, i32 }
          cleanup
  %32 = extractvalue { ptr, i32 } %31, 0
  store ptr %32, ptr %3, align 8
  %33 = extractvalue { ptr, i32 } %31, 1
  store i32 %33, ptr %4, align 4
  br label %38

34:                                               ; preds = %23, %20, %19, %18
  %35 = landingpad { ptr, i32 }
          cleanup
  %36 = extractvalue { ptr, i32 } %35, 0
  store ptr %36, ptr %3, align 8
  %37 = extractvalue { ptr, i32 } %35, 1
  store i32 %37, ptr %4, align 4
  call void @_ZN3ozz7options11TypedOptionIbED1Ev(ptr noundef nonnull align 8 dereferenceable(42) %17) #3
  br label %38

38:                                               ; preds = %34, %30
  call void @_ZN3ozz7options11TypedOptionIbED1Ev(ptr noundef nonnull align 8 dereferenceable(42) %16) #3
  br label %39

39:                                               ; preds = %38
  %40 = load ptr, ptr %3, align 8
  %41 = load i32, ptr %4, align 4
  %42 = insertvalue { ptr, i32 } poison, ptr %40, 0
  %43 = insertvalue { ptr, i32 } %42, i32 %41, 1
  resume { ptr, i32 } %43
}