; Function Attrs: mustprogress uwtable
define dso_local void @_ZN3ozz7options6ParserC2Ev(ptr noundef nonnull align 8 dereferenceable(400) initializes((256, 304)) %0) unnamed_addr #3 align 2 personality ptr @__gxx_personality_v0 {
  %2 = getelementptr inbounds nuw i8, ptr %0, i64 256
  store i32 0, ptr %2, align 8, !tbaa !22
  %3 = getelementptr inbounds nuw i8, ptr %0, i64 260
  store i32 0, ptr %3, align 4, !tbaa !25
  %4 = getelementptr inbounds nuw i8, ptr %0, i64 264
  store ptr @.str.3, ptr %4, align 8, !tbaa !26
  %5 = getelementptr inbounds nuw i8, ptr %0, i64 272
  store ptr getelementptr inbounds nuw (i8, ptr @.str.3, i64 1), ptr %5, align 8, !tbaa !27
  %6 = getelementptr inbounds nuw i8, ptr %0, i64 280
  store ptr @.str.3, ptr %6, align 8, !tbaa !28
  %7 = getelementptr inbounds nuw i8, ptr %0, i64 288
  %8 = getelementptr inbounds nuw i8, ptr %0, i64 304
  tail call void @llvm.memset.p0.i64(ptr noundef nonnull align 8 dereferenceable(16) %7, i8 0, i64 16, i1 false)
  tail call void @_ZN3ozz7options11TypedOptionIbEC1EPKcS4_bbPFbRKNS0_6OptionEiE(ptr noundef nonnull align 8 dereferenceable(42) %8, ptr noundef nonnull @.str.5, ptr noundef nonnull @.str.6, i1 noundef zeroext false, i1 noundef zeroext false, ptr noundef nonnull @_ZN3ozz7options12_GLOBAL__N_123ValidateExclusiveOptionERKNS0_6OptionEi)
  %9 = getelementptr inbounds nuw i8, ptr %0, i64 352
  invoke void @_ZN3ozz7options11TypedOptionIbEC1EPKcS4_bbPFbRKNS0_6OptionEiE(ptr noundef nonnull align 8 dereferenceable(42) %9, ptr noundef nonnull @.str.7, ptr noundef nonnull @.str.8, i1 noundef zeroext false, i1 noundef zeroext false, ptr noundef nonnull @_ZN3ozz7options12_GLOBAL__N_123ValidateExclusiveOptionERKNS0_6OptionEi)
          to label %10 unwind label %17

10:                                               ; preds = %1
  %11 = getelementptr inbounds nuw i8, ptr %0, i64 296
  store ptr @.str.28, ptr %7, align 8, !tbaa !29
  store ptr @.str.27, ptr %11, align 8, !tbaa !30
  %12 = invoke noundef zeroext i1 @_ZN3ozz7options6Parser14RegisterOptionEPNS0_6OptionE(ptr noundef nonnull align 8 dereferenceable(400) %0, ptr noundef nonnull %8)
          to label %13 unwind label %19

13:                                               ; preds = %10
  %14 = invoke noundef zeroext i1 @_ZN3ozz7options6Parser14RegisterOptionEPNS0_6OptionE(ptr noundef nonnull align 8 dereferenceable(400) %0, ptr noundef nonnull %9)
          to label %15 unwind label %19

15:                                               ; preds = %13
  %16 = load i32, ptr %2, align 8, !tbaa !22
  store i32 %16, ptr %3, align 4, !tbaa !25
  ret void

17:                                               ; preds = %1
  %18 = landingpad { ptr, i32 }
          cleanup
  br label %21

19:                                               ; preds = %13, %10
  %20 = landingpad { ptr, i32 }
          cleanup
  tail call void @_ZN3ozz7options11TypedOptionIbED1Ev(ptr noundef nonnull align 8 dereferenceable(42) %9) #29
  br label %21

21:                                               ; preds = %19, %17
  %.pn = phi { ptr, i32 } [ %20, %19 ], [ %18, %17 ]
  tail call void @_ZN3ozz7options11TypedOptionIbED1Ev(ptr noundef nonnull align 8 dereferenceable(42) %8) #29
  resume { ptr, i32 } %.pn
}